target datalayout = "e-m:e-p270:32:32-p271:32:32-p272:64:64-i64:64-i128:128-f80:128-n8:16:32:64-S128"
target triple = "x86_64-pc-linux-gnu"

@stdout = external global ptr, align 8
@.str.52 = private unnamed_addr constant [30 x i8] c"Usage: %s [OPTIONS] [OBJECT]\0A\00", align 1
@.str.53 = private unnamed_addr constant [2 x i8] c"\0A\00", align 1
@.str.54 = private unnamed_addr constant [14 x i8] c"     OPTIONS\0A\00", align 1
@.str.55 = private unnamed_addr constant [59 x i8] c"        --help            Print a usage message and exit.\0A\00", align 1
@.str.56 = private unnamed_addr constant [58 x i8] c"        --version         Print version number and exit.\0A\00", align 1
@.str.57 = private unnamed_addr constant [68 x i8] c"        --label           Label members of compound typed dataset.\0A\00", align 1
@.str.58 = private unnamed_addr constant [65 x i8] c"        --simple          Use a machine-readable output format.\0A\00", align 1
@.str.59 = private unnamed_addr constant [79 x i8] c"        --dim             Monitor changes in size of dataset dimensions only.\0A\00", align 1
@.str.60 = private unnamed_addr constant [70 x i8] c"        --width=N         Set the number of columns to N for output.\0A\00", align 1
@.str.61 = private unnamed_addr constant [78 x i8] c"                              A value of 0 sets the number of columns to the\0A\00", align 1
@.str.62 = private unnamed_addr constant [81 x i8] c"                              maximum (65535). The default width is 80 columns.\0A\00", align 1
@.str.63 = private unnamed_addr constant [79 x i8] c"        --polling=N       Set the polling interval to N (in seconds) when the\0A\00", align 1
@.str.64 = private unnamed_addr constant [87 x i8] c"                              dataset will be checked for appended data.  The default\0A\00", align 1
@.str.65 = private unnamed_addr constant [54 x i8] c"                              polling interval is 1.\0A\00", align 1
@.str.66 = private unnamed_addr constant [35 x i8] c"        --fields=<list_of_fields>\0A\00", align 1
@.str.67 = private unnamed_addr constant [89 x i8] c"                              Display data for the fields specified in <list_of_fields>\0A\00", align 1
@.str.68 = private unnamed_addr constant [82 x i8] c"                              for a compound data type.  <list_of_fields> can be\0A\00", align 1
@.str.69 = private unnamed_addr constant [53 x i8] c"                              specified as follows:\0A\00", align 1
@.str.70 = private unnamed_addr constant [82 x i8] c"                                   1) A comma-separated list of field names in a\0A\00", align 1
@.str.71 = private unnamed_addr constant [78 x i8] c"                                   compound data type.  \22,\22 is the separator\0A\00", align 1
@.str.72 = private unnamed_addr constant [79 x i8] c"                                   for field names while \22.\22 is the separator\0A\00", align 1
@.str.73 = private unnamed_addr constant [56 x i8] c"                                   for a nested field.\0A\00", align 1
@.str.74 = private unnamed_addr constant [84 x i8] c"                                   2) A single field name in a compound data type.\0A\00", align 1
@.str.75 = private unnamed_addr constant [72 x i8] c"                                   Can use this option multiple times.\0A\00", align 1
@.str.76 = private unnamed_addr constant [84 x i8] c"                              Note that backslash is the escape character to avoid\0A\00", align 1
@.str.77 = private unnamed_addr constant [87 x i8] c"                              characters in field names that conflict with the tool's\0A\00", align 1
@.str.78 = private unnamed_addr constant [43 x i8] c"                              separators.\0A\00", align 1
@.str.79 = private unnamed_addr constant [71 x i8] c"     OBJECT is specified as [<filename>/<path_to_dataset>/<dsetname>]\0A\00", align 1
@.str.80 = private unnamed_addr constant [82 x i8] c"        <filename>            Name of the HDF5 file.  It may be preceded by path\0A\00", align 1
@.str.81 = private unnamed_addr constant [80 x i8] c"                              separated by slashes to the specified HDF5 file.\0A\00", align 1
@.str.82 = private unnamed_addr constant [82 x i8] c"        <path_to_dataset>     Path separated by slashes to the specified dataset\0A\00", align 1
@.str.83 = private unnamed_addr constant [51 x i8] c"        <dsetname>            Name of the dataset\0A\00", align 1
@.str.84 = private unnamed_addr constant [89 x i8] c"     User can end the h5watch process by ctrl-C (SIGINT) or kill the process (SIGTERM).\0A\00", align 1

; Function Attrs: nounwind uwtable
define internal void @usage(ptr noundef %0) #0 {
  %2 = alloca ptr, align 8
  store ptr %0, ptr %2, align 8, !tbaa !11
  %3 = load ptr, ptr @stdout, align 8, !tbaa !20
  %4 = call i32 @fflush(ptr noundef %3)
  %5 = load ptr, ptr @stdout, align 8, !tbaa !20
  %6 = load ptr, ptr %2, align 8, !tbaa !11
  %7 = call i32 (ptr, ptr, ...) @fprintf(ptr noundef %5, ptr noundef @.str.52, ptr noundef %6) #11
  %8 = load ptr, ptr @stdout, align 8, !tbaa !20
  %9 = call i32 (ptr, ptr, ...) @fprintf(ptr noundef %8, ptr noundef @.str.53) #11
  %10 = load ptr, ptr @stdout, align 8, !tbaa !20
  %11 = call i32 (ptr, ptr, ...) @fprintf(ptr noundef %10, ptr noundef @.str.54) #11
  %12 = load ptr, ptr @stdout, align 8, !tbaa !20
  %13 = call i32 (ptr, ptr, ...) @fprintf(ptr noundef %12, ptr noundef @.str.55) #11
  %14 = load ptr, ptr @stdout, align 8, !tbaa !20
  %15 = call i32 (ptr, ptr, ...) @fprintf(ptr noundef %14, ptr noundef @.str.56) #11
  %16 = load ptr, ptr @stdout, align 8, !tbaa !20
  %17 = call i32 (ptr, ptr, ...) @fprintf(ptr noundef %16, ptr noundef @.str.57) #11
  %18 = load ptr, ptr @stdout, align 8, !tbaa !20
  %19 = call i32 (ptr, ptr, ...) @fprintf(ptr noundef %18, ptr noundef @.str.58) #11
  %20 = load ptr, ptr @stdout, align 8, !tbaa !20
  %21 = call i32 (ptr, ptr, ...) @fprintf(ptr noundef %20, ptr noundef @.str.59) #11
  %22 = load ptr, ptr @stdout, align 8, !tbaa !20
  %23 = call i32 (ptr, ptr, ...) @fprintf(ptr noundef %22, ptr noundef @.str.60) #11
  %24 = load ptr, ptr @stdout, align 8, !tbaa !20
  %25 = call i32 (ptr, ptr, ...) @fprintf(ptr noundef %24, ptr noundef @.str.61) #11
  %26 = load ptr, ptr @stdout, align 8, !tbaa !20
  %27 = call i32 (ptr, ptr, ...) @fprintf(ptr noundef %26, ptr noundef @.str.62) #11
  %28 = load ptr, ptr @stdout, align 8, !tbaa !20
  %29 = call i32 (ptr, ptr, ...) @fprintf(ptr noundef %28, ptr noundef @.str.63) #11
  %30 = load ptr, ptr @stdout, align 8, !tbaa !20
  %31 = call i32 (ptr, ptr, ...) @fprintf(ptr noundef %30, ptr noundef @.str.64) #11
  %32 = load ptr, ptr @stdout, align 8, !tbaa !20
  %33 = call i32 (ptr, ptr, ...) @fprintf(ptr noundef %32, ptr noundef @.str.65) #11
  %34 = load ptr, ptr @stdout, align 8, !tbaa !20
  %35 = call i32 (ptr, ptr, ...) @fprintf(ptr noundef %34, ptr noundef @.str.66) #11
  %36 = load ptr, ptr @stdout, align 8, !tbaa !20
  %37 = call i32 (ptr, ptr, ...) @fprintf(ptr noundef %36, ptr noundef @.str.67) #11
  %38 = load ptr, ptr @stdout, align 8, !tbaa !20
  %39 = call i32 (ptr, ptr, ...) @fprintf(ptr noundef %38, ptr noundef @.str.68) #11
  %40 = load ptr, ptr @stdout, align 8, !tbaa !20
  %41 = call i32 (ptr, ptr, ...) @fprintf(ptr noundef %40, ptr noundef @.str.69) #11
  %42 = load ptr, ptr @stdout, align 8, !tbaa !20
  %43 = call i32 (ptr, ptr, ...) @fprintf(ptr noundef %42, ptr noundef @.str.70) #11
  %44 = load ptr, ptr @stdout, align 8, !tbaa !20
  %45 = call i32 (ptr, ptr, ...) @fprintf(ptr noundef %44, ptr noundef @.str.71) #11
  %46 = load ptr, ptr @stdout, align 8, !tbaa !20
  %47 = call i32 (ptr, ptr, ...) @fprintf(ptr noundef %46, ptr noundef @.str.72) #11
  %48 = load ptr, ptr @stdout, align 8, !tbaa !20
  %49 = call i32 (ptr, ptr, ...) @fprintf(ptr noundef %48, ptr noundef @.str.73) #11
  %50 = load ptr, ptr @stdout, align 8, !tbaa !20
  %51 = call i32 (ptr, ptr, ...) @fprintf(ptr noundef %50, ptr noundef @.str.74) #11
  %52 = load ptr, ptr @stdout, align 8, !tbaa !20
  %53 = call i32 (ptr, ptr, ...) @fprintf(ptr noundef %52, ptr noundef @.str.75) #11
  %54 = load ptr, ptr @stdout, align 8, !tbaa !20
  %55 = call i32 (ptr, ptr, ...) @fprintf(ptr noundef %54, ptr noundef @.str.76) #11
  %56 = load ptr, ptr @stdout, align 8, !tbaa !20
  %57 = call i32 (ptr, ptr, ...) @fprintf(ptr noundef %56, ptr noundef @.str.77) #11
  %58 = load ptr, ptr @stdout, align 8, !tbaa !20
  %59 = call i32 (ptr, ptr, ...) @fprintf(ptr noundef %58, ptr noundef @.str.78) #11
  %60 = load ptr, ptr @stdout, align 8, !tbaa !20
  %61 = call i32 (ptr, ptr, ...) @fprintf(ptr noundef %60, ptr noundef @.str.53) #11
  %62 = load ptr, ptr @stdout, align 8, !tbaa !20
  %63 = call i32 (ptr, ptr, ...) @fprintf(ptr noundef %62, ptr noundef @.str.79) #11
  %64 = load ptr, ptr @stdout, align 8, !tbaa !20
  %65 = call i32 (ptr, ptr, ...) @fprintf(ptr noundef %64, ptr noundef @.str.80) #11
  %66 = load ptr, ptr @stdout, align 8, !tbaa !20
  %67 = call i32 (ptr, ptr, ...) @fprintf(ptr noundef %66, ptr noundef @.str.81) #11
  %68 = load ptr, ptr @stdout, align 8, !tbaa !20
  %69 = call i32 (ptr, ptr, ...) @fprintf(ptr noundef %68, ptr noundef @.str.82) #11
  %70 = load ptr, ptr @stdout, align 8, !tbaa !20
  %71 = call i32 (ptr, ptr, ...) @fprintf(ptr noundef %70, ptr noundef @.str.83) #11
  %72 = load ptr, ptr @stdout, align 8, !tbaa !20
  %73 = call i32 (ptr, ptr, ...) @fprintf(ptr noundef %72, ptr noundef @.str.53) #11
  %74 = load ptr, ptr @stdout, align 8, !tbaa !20
  %75 = call i32 (ptr, ptr, ...) @fprintf(ptr noundef %74, ptr noundef @.str.84) #11
  ret void
}