; Function Attrs: nofree nounwind uwtable
define internal fastcc void @usage(ptr noundef %0) unnamed_addr #5 {
  %2 = load ptr, ptr @stdout, align 8, !tbaa !24
  %3 = tail call i32 @fflush(ptr noundef %2)
  %4 = load ptr, ptr @stdout, align 8, !tbaa !24
  %5 = tail call i32 (ptr, ptr, ...) @fprintf(ptr noundef %4, ptr noundef nonnull @.str.52, ptr noundef %0) #20
  %6 = load ptr, ptr @stdout, align 8, !tbaa !24
  %fputc = tail call i32 @fputc(i32 10, ptr %6)
  %7 = load ptr, ptr @stdout, align 8, !tbaa !24
  %8 = tail call i64 @fwrite(ptr nonnull @.str.54, i64 13, i64 1, ptr %7)
  %9 = load ptr, ptr @stdout, align 8, !tbaa !24
  %10 = tail call i64 @fwrite(ptr nonnull @.str.55, i64 58, i64 1, ptr %9)
  %11 = load ptr, ptr @stdout, align 8, !tbaa !24
  %12 = tail call i64 @fwrite(ptr nonnull @.str.56, i64 57, i64 1, ptr %11)
  %13 = load ptr, ptr @stdout, align 8, !tbaa !24
  %14 = tail call i64 @fwrite(ptr nonnull @.str.57, i64 67, i64 1, ptr %13)
  %15 = load ptr, ptr @stdout, align 8, !tbaa !24
  %16 = tail call i64 @fwrite(ptr nonnull @.str.58, i64 64, i64 1, ptr %15)
  %17 = load ptr, ptr @stdout, align 8, !tbaa !24
  %18 = tail call i64 @fwrite(ptr nonnull @.str.59, i64 78, i64 1, ptr %17)
  %19 = load ptr, ptr @stdout, align 8, !tbaa !24
  %20 = tail call i64 @fwrite(ptr nonnull @.str.60, i64 69, i64 1, ptr %19)
  %21 = load ptr, ptr @stdout, align 8, !tbaa !24
  %22 = tail call i64 @fwrite(ptr nonnull @.str.61, i64 77, i64 1, ptr %21)
  %23 = load ptr, ptr @stdout, align 8, !tbaa !24
  %24 = tail call i64 @fwrite(ptr nonnull @.str.62, i64 80, i64 1, ptr %23)
  %25 = load ptr, ptr @stdout, align 8, !tbaa !24
  %26 = tail call i64 @fwrite(ptr nonnull @.str.63, i64 78, i64 1, ptr %25)
  %27 = load ptr, ptr @stdout, align 8, !tbaa !24
  %28 = tail call i64 @fwrite(ptr nonnull @.str.64, i64 86, i64 1, ptr %27)
  %29 = load ptr, ptr @stdout, align 8, !tbaa !24
  %30 = tail call i64 @fwrite(ptr nonnull @.str.65, i64 53, i64 1, ptr %29)
  %31 = load ptr, ptr @stdout, align 8, !tbaa !24
  %32 = tail call i64 @fwrite(ptr nonnull @.str.66, i64 34, i64 1, ptr %31)
  %33 = load ptr, ptr @stdout, align 8, !tbaa !24
  %34 = tail call i64 @fwrite(ptr nonnull @.str.67, i64 88, i64 1, ptr %33)
  %35 = load ptr, ptr @stdout, align 8, !tbaa !24
  %36 = tail call i64 @fwrite(ptr nonnull @.str.68, i64 81, i64 1, ptr %35)
  %37 = load ptr, ptr @stdout, align 8, !tbaa !24
  %38 = tail call i64 @fwrite(ptr nonnull @.str.69, i64 52, i64 1, ptr %37)
  %39 = load ptr, ptr @stdout, align 8, !tbaa !24
  %40 = tail call i64 @fwrite(ptr nonnull @.str.70, i64 81, i64 1, ptr %39)
  %41 = load ptr, ptr @stdout, align 8, !tbaa !24
  %42 = tail call i64 @fwrite(ptr nonnull @.str.71, i64 77, i64 1, ptr %41)
  %43 = load ptr, ptr @stdout, align 8, !tbaa !24
  %44 = tail call i64 @fwrite(ptr nonnull @.str.72, i64 78, i64 1, ptr %43)
  %45 = load ptr, ptr @stdout, align 8, !tbaa !24
  %46 = tail call i64 @fwrite(ptr nonnull @.str.73, i64 55, i64 1, ptr %45)
  %47 = load ptr, ptr @stdout, align 8, !tbaa !24
  %48 = tail call i64 @fwrite(ptr nonnull @.str.74, i64 83, i64 1, ptr %47)
  %49 = load ptr, ptr @stdout, align 8, !tbaa !24
  %50 = tail call i64 @fwrite(ptr nonnull @.str.75, i64 71, i64 1, ptr %49)
  %51 = load ptr, ptr @stdout, align 8, !tbaa !24
  %52 = tail call i64 @fwrite(ptr nonnull @.str.76, i64 83, i64 1, ptr %51)
  %53 = load ptr, ptr @stdout, align 8, !tbaa !24
  %54 = tail call i64 @fwrite(ptr nonnull @.str.77, i64 86, i64 1, ptr %53)
  %55 = load ptr, ptr @stdout, align 8, !tbaa !24
  %56 = tail call i64 @fwrite(ptr nonnull @.str.78, i64 42, i64 1, ptr %55)
  %57 = load ptr, ptr @stdout, align 8, !tbaa !24
  %fputc1 = tail call i32 @fputc(i32 10, ptr %57)
  %58 = load ptr, ptr @stdout, align 8, !tbaa !24
  %59 = tail call i64 @fwrite(ptr nonnull @.str.79, i64 70, i64 1, ptr %58)
  %60 = load ptr, ptr @stdout, align 8, !tbaa !24
  %61 = tail call i64 @fwrite(ptr nonnull @.str.80, i64 81, i64 1, ptr %60)
  %62 = load ptr, ptr @stdout, align 8, !tbaa !24
  %63 = tail call i64 @fwrite(ptr nonnull @.str.81, i64 79, i64 1, ptr %62)
  %64 = load ptr, ptr @stdout, align 8, !tbaa !24
  %65 = tail call i64 @fwrite(ptr nonnull @.str.82, i64 81, i64 1, ptr %64)
  %66 = load ptr, ptr @stdout, align 8, !tbaa !24
  %67 = tail call i64 @fwrite(ptr nonnull @.str.83, i64 50, i64 1, ptr %66)
  %68 = load ptr, ptr @stdout, align 8, !tbaa !24
  %fputc2 = tail call i32 @fputc(i32 10, ptr %68)
  %69 = load ptr, ptr @stdout, align 8, !tbaa !24
  %70 = tail call i64 @fwrite(ptr nonnull @.str.84, i64 88, i64 1, ptr %69)
  ret void
}